; ModuleID = '23/79.c'
source_filename = "23/79.c"
target datalayout = "e-m:e-p270:32:32-p271:32:32-p272:64:64-i64:64-f80:128-n8:16:32:64-S128"
target triple = "x86_64-pc-linux-gnu"

@.str = private unnamed_addr constant [3 x i8] c"%c\00", align 1
@.str.1 = private unnamed_addr constant [2 x i8] c" \00", align 1

; Function Attrs: noinline nounwind uwtable
define dso_local void @main() #0 {
  %1 = alloca [100 x i8], align 16
  %2 = alloca [100 x [100 x i8]], align 16
  %3 = alloca [100 x i32], align 16
  %4 = alloca i32, align 4
  %5 = alloca i32, align 4
  %6 = alloca i32, align 4
  %7 = alloca i32, align 4
  %8 = alloca i32, align 4
  %9 = bitcast [100 x i32]* %3 to i8*
  call void @llvm.memset.p0i8.i64(i8* align 16 %9, i8 0, i64 400, i1 false)
  %10 = getelementptr inbounds [100 x i8], [100 x i8]* %1, i64 0, i64 0
  %11 = call i32 (i8*, ...) bitcast (i32 (...)* @gets to i32 (i8*, ...)*)(i8* %10)
  %12 = getelementptr inbounds [100 x i8], [100 x i8]* %1, i64 0, i64 0
  %13 = call i64 @strlen(i8* %12) #4
  %14 = trunc i64 %13 to i32
  store i32 %14, i32* %4, align 4
  store i32 0, i32* %6, align 4
  store i32 0, i32* %7, align 4
  store i32 0, i32* %5, align 4
  br label %15

15:                                               ; preds = %68, %0
  %16 = load i32, i32* %5, align 4
  %17 = load i32, i32* %4, align 4
  %18 = icmp slt i32 %16, %17
  br i1 %18, label %19, label %71

19:                                               ; preds = %15
  %20 = load i32, i32* %5, align 4
  %21 = sext i32 %20 to i64
  %22 = getelementptr inbounds [100 x i8], [100 x i8]* %1, i64 0, i64 %21
  %23 = load i8, i8* %22, align 1
  %24 = sext i8 %23 to i32
  %25 = icmp eq i32 %24, 32
  br i1 %25, label %26, label %42

26:                                               ; preds = %19
  %27 = load i32, i32* %6, align 4
  %28 = add nsw i32 %27, 1
  store i32 %28, i32* %6, align 4
  %29 = load i32, i32* %6, align 4
  %30 = sext i32 %29 to i64
  %31 = getelementptr inbounds [100 x i32], [100 x i32]* %3, i64 0, i64 %30
  %32 = load i32, i32* %31, align 4
  %33 = add nsw i32 %32, 1
  store i32 %33, i32* %31, align 4
  store i32 0, i32* %7, align 4
  %34 = load i32, i32* %6, align 4
  %35 = sext i32 %34 to i64
  %36 = getelementptr inbounds [100 x [100 x i8]], [100 x [100 x i8]]* %2, i64 0, i64 %35
  %37 = load i32, i32* %7, align 4
  %38 = sext i32 %37 to i64
  %39 = getelementptr inbounds [100 x i8], [100 x i8]* %36, i64 0, i64 %38
  store i8 32, i8* %39, align 1
  %40 = load i32, i32* %7, align 4
  %41 = add nsw i32 %40, 1
  store i32 %41, i32* %7, align 4
  br label %42

42:                                               ; preds = %26, %19
  %43 = load i32, i32* %5, align 4
  %44 = sext i32 %43 to i64
  %45 = getelementptr inbounds [100 x i8], [100 x i8]* %1, i64 0, i64 %44
  %46 = load i8, i8* %45, align 1
  %47 = sext i8 %46 to i32
  %48 = icmp ne i32 %47, 32
  br i1 %48, label %49, label %67

49:                                               ; preds = %42
  %50 = load i32, i32* %6, align 4
  %51 = sext i32 %50 to i64
  %52 = getelementptr inbounds [100 x i32], [100 x i32]* %3, i64 0, i64 %51
  %53 = load i32, i32* %52, align 4
  %54 = add nsw i32 %53, 1
  store i32 %54, i32* %52, align 4
  %55 = load i32, i32* %5, align 4
  %56 = sext i32 %55 to i64
  %57 = getelementptr inbounds [100 x i8], [100 x i8]* %1, i64 0, i64 %56
  %58 = load i8, i8* %57, align 1
  %59 = load i32, i32* %6, align 4
  %60 = sext i32 %59 to i64
  %61 = getelementptr inbounds [100 x [100 x i8]], [100 x [100 x i8]]* %2, i64 0, i64 %60
  %62 = load i32, i32* %7, align 4
  %63 = sext i32 %62 to i64
  %64 = getelementptr inbounds [100 x i8], [100 x i8]* %61, i64 0, i64 %63
  store i8 %58, i8* %64, align 1
  %65 = load i32, i32* %7, align 4
  %66 = add nsw i32 %65, 1
  store i32 %66, i32* %7, align 4
  br label %67

67:                                               ; preds = %49, %42
  br label %68

68:                                               ; preds = %67
  %69 = load i32, i32* %5, align 4
  %70 = add nsw i32 %69, 1
  store i32 %70, i32* %5, align 4
  br label %15

71:                                               ; preds = %15
  %72 = load i32, i32* %6, align 4
  store i32 %72, i32* %8, align 4
  %73 = load i32, i32* %8, align 4
  %74 = icmp ne i32 %73, 0
  br i1 %74, label %75, label %97

75:                                               ; preds = %71
  store i32 1, i32* %7, align 4
  br label %76

76:                                               ; preds = %93, %75
  %77 = load i32, i32* %7, align 4
  %78 = load i32, i32* %8, align 4
  %79 = sext i32 %78 to i64
  %80 = getelementptr inbounds [100 x i32], [100 x i32]* %3, i64 0, i64 %79
  %81 = load i32, i32* %80, align 4
  %82 = icmp slt i32 %77, %81
  br i1 %82, label %83, label %96

83:                                               ; preds = %76
  %84 = load i32, i32* %8, align 4
  %85 = sext i32 %84 to i64
  %86 = getelementptr inbounds [100 x [100 x i8]], [100 x [100 x i8]]* %2, i64 0, i64 %85
  %87 = load i32, i32* %7, align 4
  %88 = sext i32 %87 to i64
  %89 = getelementptr inbounds [100 x i8], [100 x i8]* %86, i64 0, i64 %88
  %90 = load i8, i8* %89, align 1
  %91 = sext i8 %90 to i32
  %92 = call i32 (i8*, ...) @printf(i8* getelementptr inbounds ([3 x i8], [3 x i8]* @.str, i64 0, i64 0), i32 %91)
  br label %93

93:                                               ; preds = %83
  %94 = load i32, i32* %7, align 4
  %95 = add nsw i32 %94, 1
  store i32 %95, i32* %7, align 4
  br label %76

96:                                               ; preds = %76
  br label %97

97:                                               ; preds = %96, %71
  %98 = load i32, i32* %8, align 4
  %99 = sub nsw i32 %98, 1
  store i32 %99, i32* %6, align 4
  br label %100

100:                                              ; preds = %125, %97
  %101 = load i32, i32* %6, align 4
  %102 = icmp sge i32 %101, 1
  br i1 %102, label %103, label %128

103:                                              ; preds = %100
  store i32 0, i32* %7, align 4
  br label %104

104:                                              ; preds = %121, %103
  %105 = load i32, i32* %7, align 4
  %106 = load i32, i32* %6, align 4
  %107 = sext i32 %106 to i64
  %108 = getelementptr inbounds [100 x i32], [100 x i32]* %3, i64 0, i64 %107
  %109 = load i32, i32* %108, align 4
  %110 = icmp slt i32 %105, %109
  br i1 %110, label %111, label %124

111:                                              ; preds = %104
  %112 = load i32, i32* %6, align 4
  %113 = sext i32 %112 to i64
  %114 = getelementptr inbounds [100 x [100 x i8]], [100 x [100 x i8]]* %2, i64 0, i64 %113
  %115 = load i32, i32* %7, align 4
  %116 = sext i32 %115 to i64
  %117 = getelementptr inbounds [100 x i8], [100 x i8]* %114, i64 0, i64 %116
  %118 = load i8, i8* %117, align 1
  %119 = sext i8 %118 to i32
  %120 = call i32 (i8*, ...) @printf(i8* getelementptr inbounds ([3 x i8], [3 x i8]* @.str, i64 0, i64 0), i32 %119)
  br label %121

121:                                              ; preds = %111
  %122 = load i32, i32* %7, align 4
  %123 = add nsw i32 %122, 1
  store i32 %123, i32* %7, align 4
  br label %104

124:                                              ; preds = %104
  br label %125

125:                                              ; preds = %124
  %126 = load i32, i32* %6, align 4
  %127 = add nsw i32 %126, -1
  store i32 %127, i32* %6, align 4
  br label %100

128:                                              ; preds = %100
  %129 = load i32, i32* %8, align 4
  %130 = icmp ne i32 %129, 0
  br i1 %130, label %131, label %133

131:                                              ; preds = %128
  %132 = call i32 (i8*, ...) @printf(i8* getelementptr inbounds ([2 x i8], [2 x i8]* @.str.1, i64 0, i64 0))
  br label %133

133:                                              ; preds = %131, %128
  store i32 0, i32* %7, align 4
  br label %134

134:                                              ; preds = %147, %133
  %135 = load i32, i32* %7, align 4
  %136 = getelementptr inbounds [100 x i32], [100 x i32]* %3, i64 0, i64 0
  %137 = load i32, i32* %136, align 16
  %138 = icmp slt i32 %135, %137
  br i1 %138, label %139, label %150

139:                                              ; preds = %134
  %140 = getelementptr inbounds [100 x [100 x i8]], [100 x [100 x i8]]* %2, i64 0, i64 0
  %141 = load i32, i32* %7, align 4
  %142 = sext i32 %141 to i64
  %143 = getelementptr inbounds [100 x i8], [100 x i8]* %140, i64 0, i64 %142
  %144 = load i8, i8* %143, align 1
  %145 = sext i8 %144 to i32
  %146 = call i32 (i8*, ...) @printf(i8* getelementptr inbounds ([3 x i8], [3 x i8]* @.str, i64 0, i64 0), i32 %145)
  br label %147

147:                                              ; preds = %139
  %148 = load i32, i32* %7, align 4
  %149 = add nsw i32 %148, 1
  store i32 %149, i32* %7, align 4
  br label %134

150:                                              ; preds = %134
  ret void
}

; Function Attrs: argmemonly nounwind willreturn
declare void @llvm.memset.p0i8.i64(i8* nocapture writeonly, i8, i64, i1 immarg) #1

declare dso_local i32 @gets(...) #2

; Function Attrs: nounwind readonly
declare dso_local i64 @strlen(i8*) #3

declare dso_local i32 @printf(i8*, ...) #2


!llvm.module.flags = !{!0}
!llvm.ident = !{!1}

!0 = !{i32 1, !"wchar_size", i32 4}
!1 = !{!"clang version 10.0.0-4ubuntu1 "}
